; Function Attrs: mustprogress nounwind uwtable
define hidden void @_ZN6Assimp11MD2ImporterC2Ev(ptr noundef nonnull align 8 dereferenceable(100) %this) unnamed_addr #3 align 2 {
entry:
  tail call void @_ZN6Assimp12BaseImporterC2Ev(ptr noundef nonnull align 8 dereferenceable(72) %this) #13
  store ptr getelementptr inbounds ({ [8 x ptr] }, ptr @_ZTVN6Assimp11MD2ImporterE, i64 0, i32 0, i64 2), ptr %this, align 8
  %configFrameID = getelementptr inbounds i8, ptr %this, i64 72
  store i32 0, ptr %configFrameID, align 8
  %m_pcHeader = getelementptr inbounds i8, ptr %this, i64 80
  tail call void @llvm.memset.p0.i64(ptr noundef nonnull align 8 dereferenceable(20) %m_pcHeader, i8 0, i64 20, i1 false)
  ret void
}